(dp0
S'problem_data'
p1
(dp2
S'trdone'
p3
I00
sS'KB'
p4
F4.0
sS'KA'
p5
F1.0
sS't1'
p6
F10.0
sS'a1'
p7
F0.1
sS'tw1'
p8
F10.0
sS'rhoB'
p9
F4.0
sS'alpha'
p10
F0.5
sS'rhoA'
p11
F1.0
sS'trtime'
p12
F999999999.0
ssS'num_eqn'
p13
I2
sS'write_aux'
p14
I00
sS't'
p15
F0.0
sS'mapc2p'
p16
cclawpack.pyclaw.geometry
identity_map_1d
p17
sS'num_dim'
p18
I1
sS'nstates'
p19
I1
sS'num_aux'
p20
I3
s.