(dp0
S'problem_data'
p1
(dp2
S'dry_tolerance'
p3
F0.001
sS'sea_level'
p4
F0.0
sS'grav'
p5
F1.0
ssS'num_eqn'
p6
I3
sS'write_aux'
p7
I00
sS't'
p8
F0.0
sS'mapc2p'
p9
cclawpack.pyclaw.geometry
identity_map_2d
p10
sS'num_dim'
p11
I2
sS'nstates'
p12
I1
sS'num_aux'
p13
I1
s.