(dp0
S'problem_data'
p1
(dp2
S'dry_tolerance'
p3
F0.001
sS'sea_level'
p4
F0.0
sS'grav'
p5
F1.0
ssS'num_eqn'
p6
I3
sS'write_aux'
p7
I00
sS't'
p8
cnumpy.core.multiarray
scalar
p9
(cnumpy
dtype
p10
(S'f8'
p11
I0
I1
tp12
Rp13
(I3
S'<'
p14
NNNI-1
I-1
I0
tp15
bS'\x00\x00\x00\x00\x00\x00\x06@'
p16
tp17
Rp18
sS'mapc2p'
p19
cclawpack.pyclaw.geometry
identity_map_2d
p20
sS'num_dim'
p21
I2
sS'nstates'
p22
I1
sS'num_aux'
p23
I1
s.