(dp0
S'problem_data'
p1
(dp2
sS'num_eqn'
p3
I3
sS'write_aux'
p4
I00
sS't'
p5
cnumpy.core.multiarray
scalar
p6
(cnumpy
dtype
p7
(S'f8'
p8
I0
I1
tp9
Rp10
(I3
S'<'
p11
NNNI-1
I-1
I0
tp12
bS'\xebQ\xb8\x1e\x85\xeb\xe9?'
p13
tp14
Rp15
sS'mapc2p'
p16
c__main__
inclusion_mapping
p17
sS'num_dim'
p18
I2
sS'nstates'
p19
I1
sS'num_aux'
p20
I9
s.