(dp0
S'problem_data'
p1
(dp2
S'u'
p3
F0.5
sS'v'
p4
F1.0
ssS'num_eqn'
p5
I1
sS'write_aux'
p6
I00
sS't'
p7
F0.0
sS'mapc2p'
p8
cclawpack.pyclaw.geometry
identity_map_2d
p9
sS'num_dim'
p10
I2
sS'nstates'
p11
I1
sS'num_aux'
p12
I0
s.