(dp0
S'problem_data'
p1
(dp2
S'u'
p3
F0.5
sS'v'
p4
F1.0
ssS'num_eqn'
p5
I1
sS'write_aux'
p6
I00
sS't'
p7
cnumpy.core.multiarray
scalar
p8
(cnumpy
dtype
p9
(S'f8'
p10
I0
I1
tp11
Rp12
(I3
S'<'
p13
NNNI-1
I-1
I0
tp14
bS'433333\xe3?'
p15
tp16
Rp17
sS'mapc2p'
p18
cclawpack.pyclaw.geometry
identity_map_2d
p19
sS'num_dim'
p20
I2
sS'nstates'
p21
I1
sS'num_aux'
p22
I0
s.