(dp0
S'problem_data'
p1
(dp2
S'efix'
p3
I01
ssS'num_eqn'
p4
I1
sS'write_aux'
p5
I00
sS't'
p6
F0.0
sS'mapc2p'
p7
cclawpack.pyclaw.geometry
identity_map_1d
p8
sS'num_dim'
p9
I1
sS'nstates'
p10
I1
sS'num_aux'
p11
I0
s.