(dp0
S'problem_data'
p1
(dp2
S'bulk'
p3
F1.0
sS'cc'
p4
cnumpy.core.multiarray
scalar
p5
(cnumpy
dtype
p6
(S'f8'
p7
I0
I1
tp8
Rp9
(I3
S'<'
p10
NNNI-1
I-1
I0
tp11
bS'\x00\x00\x00\x00\x00\x00\xf0?'
p12
tp13
Rp14
sS'zz'
p15
g5
(g9
S'\x00\x00\x00\x00\x00\x00\xf0?'
p16
tp17
Rp18
sS'rho'
p19
F1.0
ssS'num_eqn'
p20
I2
sS'write_aux'
p21
I00
sS't'
p22
F0.0
sS'mapc2p'
p23
cclawpack.pyclaw.geometry
identity_map_1d
p24
sS'num_dim'
p25
I1
sS'nstates'
p26
I1
sS'num_aux'
p27
I0
s.