(dp0
S'problem_data'
p1
(dp2
S'gamma'
p3
F1.4
ssS'num_eqn'
p4
I4
sS'write_aux'
p5
I00
sS't'
p6
F0.0
sS'mapc2p'
p7
cclawpack.pyclaw.geometry
identity_map_2d
p8
sS'num_dim'
p9
I2
sS'nstates'
p10
I1
sS'num_aux'
p11
I1
s.