(dp0
S'problem_data'
p1
(dp2
S'gamma'
p3
F1.4
ssS'num_eqn'
p4
I4
sS'write_aux'
p5
I00
sS't'
p6
cnumpy.core.multiarray
scalar
p7
(cnumpy
dtype
p8
(S'f8'
p9
I0
I1
tp10
Rp11
(I3
S'<'
p12
NNNI-1
I-1
I0
tp13
bS'\x9a\x99\x99\x99\x99\x99\xe9?'
p14
tp15
Rp16
sS'mapc2p'
p17
cclawpack.pyclaw.geometry
identity_map_2d
p18
sS'num_dim'
p19
I2
sS'nstates'
p20
I1
sS'num_aux'
p21
I1
s.